target datalayout = "e-m:e-p270:32:32-p271:32:32-p272:64:64-i64:64-i128:128-f80:128-n8:16:32:64-S128"
target triple = "x86_64-pc-linux-gnu"

%"struct.duckdb_zstd::ZDICT_cover_params_t" = type { i32, i32, i32, i32, double, i32, i32, %"struct.duckdb_zstd::ZDICT_params_t" }
%"struct.duckdb_zstd::ZDICT_params_t" = type { i32, i32, i32 }
%"struct.duckdb_zstd::COVER_best_s" = type { i32, i32, i64, ptr, i64, %"struct.duckdb_zstd::ZDICT_cover_params_t", i64 }

; Function Attrs: mustprogress nounwind uwtable
define void @_ZN11duckdb_zstd15COVER_best_waitEPNS_12COVER_best_sE(ptr noundef %0) #0 {
  %2 = alloca ptr, align 8
  store ptr %0, ptr %2, align 8, !tbaa !68
  %3 = load ptr, ptr %2, align 8, !tbaa !68
  %4 = icmp ne ptr %3, null
  br i1 %4, label %6, label %5

5:                                                ; preds = %1
  br label %14

6:                                                ; preds = %1
  br label %7

7:                                                ; preds = %12, %6
  %8 = load ptr, ptr %2, align 8, !tbaa !68
  %9 = getelementptr inbounds nuw %"struct.duckdb_zstd::COVER_best_s", ptr %8, i32 0, i32 2
  %10 = load i64, ptr %9, align 8, !tbaa !70
  %11 = icmp ne i64 %10, 0
  br i1 %11, label %12, label %13

12:                                               ; preds = %7
  br label %7, !llvm.loop !75

13:                                               ; preds = %7
  br label %14

14:                                               ; preds = %13, %5
  ret void
}

; Function Attrs: mustprogress nounwind uwtable
define void @_ZN11duckdb_zstd18COVER_best_destroyEPNS_12COVER_best_sE(ptr noundef %0) #0 {
  %2 = alloca ptr, align 8
  store ptr %0, ptr %2, align 8, !tbaa !68
  %3 = load ptr, ptr %2, align 8, !tbaa !68
  %4 = icmp ne ptr %3, null
  br i1 %4, label %6, label %5

5:                                                ; preds = %1
  br label %17

6:                                                ; preds = %1
  %7 = load ptr, ptr %2, align 8, !tbaa !68
  call void @_ZN11duckdb_zstd15COVER_best_waitEPNS_12COVER_best_sE(ptr noundef %7)
  %8 = load ptr, ptr %2, align 8, !tbaa !68
  %9 = getelementptr inbounds nuw %"struct.duckdb_zstd::COVER_best_s", ptr %8, i32 0, i32 3
  %10 = load ptr, ptr %9, align 8, !tbaa !72
  %11 = icmp ne ptr %10, null
  br i1 %11, label %12, label %16

12:                                               ; preds = %6
  %13 = load ptr, ptr %2, align 8, !tbaa !68
  %14 = getelementptr inbounds nuw %"struct.duckdb_zstd::COVER_best_s", ptr %13, i32 0, i32 3
  %15 = load ptr, ptr %14, align 8, !tbaa !72
  call void @free(ptr noundef %15) #12
  br label %16

16:                                               ; preds = %12, %6
  br label %17

17:                                               ; preds = %16, %5
  ret void
}