; Function Attrs: mustprogress nounwind willreturn uwtable
define void @_ZN11duckdb_zstd18COVER_best_destroyEPNS_12COVER_best_sE(ptr noundef readonly captures(address_is_null) %0) local_unnamed_addr #13 {
  %.not = icmp eq ptr %0, null
  br i1 %.not, label %7, label %_ZN11duckdb_zstd15COVER_best_waitEPNS_12COVER_best_sE.exit

_ZN11duckdb_zstd15COVER_best_waitEPNS_12COVER_best_sE.exit: ; preds = %1
  %2 = getelementptr inbounds nuw i8, ptr %0, i64 8
  %3 = load i64, ptr %2, align 8, !tbaa !64
  %.not2.i = icmp eq i64 %3, 0
  tail call void @llvm.assume(i1 %.not2.i)
  %4 = getelementptr inbounds nuw i8, ptr %0, i64 16
  %5 = load ptr, ptr %4, align 8, !tbaa !65
  %.not5 = icmp eq ptr %5, null
  br i1 %.not5, label %7, label %6

6:                                                ; preds = %_ZN11duckdb_zstd15COVER_best_waitEPNS_12COVER_best_sE.exit
  tail call void @free(ptr noundef nonnull %5) #25
  br label %7

7:                                                ; preds = %_ZN11duckdb_zstd15COVER_best_waitEPNS_12COVER_best_sE.exit, %6, %1
  ret void
}